target datalayout = "e-m:e-p270:32:32-p271:32:32-p272:64:64-i64:64-i128:128-f80:128-n8:16:32:64-S128"
target triple = "x86_64-pc-linux-gnu"

@_ZTISt12out_of_range = linkonce_odr constant { ptr, ptr, ptr } { ptr getelementptr inbounds (ptr, ptr @_ZTVN10__cxxabiv120__si_class_type_infoE, i64 2), ptr @_ZTSSt12out_of_range, ptr @_ZTISt11logic_error }, comdat, align 8

; Function Attrs: mustprogress uwtable
define noundef i32 @_ZN7rocksdb11ParseUint32ERKNSt7__cxx1112basic_stringIcSt11char_traitsIcESaIcEEE(ptr noundef nonnull align 8 dereferenceable(32) %0) #3 personality ptr @__gxx_personality_v0 {
  %2 = alloca ptr, align 8
  %3 = alloca i64, align 8
  %4 = alloca ptr, align 8
  %5 = alloca i32, align 4
  store ptr %0, ptr %2, align 8, !tbaa !9
  call void @llvm.lifetime.start.p0(i64 8, ptr %3) #4
  %6 = load ptr, ptr %2, align 8, !tbaa !9
  %7 = call noundef i64 @_ZN7rocksdb11ParseUint64ERKNSt7__cxx1112basic_stringIcSt11char_traitsIcESaIcEEE(ptr noundef nonnull align 8 dereferenceable(32) %6)
  store i64 %7, ptr %3, align 8, !tbaa !32
  %8 = load i64, ptr %3, align 8, !tbaa !32
  %9 = lshr i64 %8, 32
  %10 = icmp eq i64 %9, 0
  br i1 %10, label %11, label %14

11:                                               ; preds = %1
  %12 = load i64, ptr %3, align 8, !tbaa !32
  %13 = trunc i64 %12 to i32
  call void @llvm.lifetime.end.p0(i64 8, ptr %3) #4
  ret i32 %13

14:                                               ; preds = %1
  %15 = call ptr @__cxa_allocate_exception(i64 16) #4
  %16 = load ptr, ptr %2, align 8, !tbaa !9
  invoke void @_ZNSt12out_of_rangeC1ERKNSt7__cxx1112basic_stringIcSt11char_traitsIcESaIcEEE(ptr noundef nonnull align 8 dereferenceable(16) %15, ptr noundef nonnull align 8 dereferenceable(32) %16)
          to label %17 unwind label %18

17:                                               ; preds = %14
  call void @__cxa_throw(ptr %15, ptr @_ZTISt12out_of_range, ptr @_ZNSt12out_of_rangeD1Ev) #18
  unreachable

18:                                               ; preds = %14
  %19 = landingpad { ptr, i32 }
          cleanup
  %20 = extractvalue { ptr, i32 } %19, 0
  store ptr %20, ptr %4, align 8
  %21 = extractvalue { ptr, i32 } %19, 1
  store i32 %21, ptr %5, align 4
  call void @__cxa_free_exception(ptr %15) #4
  call void @llvm.lifetime.end.p0(i64 8, ptr %3) #4
  br label %22

22:                                               ; preds = %18
  %23 = load ptr, ptr %4, align 8
  %24 = load i32, ptr %5, align 4
  %25 = insertvalue { ptr, i32 } poison, ptr %23, 0
  %26 = insertvalue { ptr, i32 } %25, i32 %24, 1
  resume { ptr, i32 } %26
}